target datalayout = "e-m:e-p270:32:32-p271:32:32-p272:64:64-i64:64-i128:128-f80:128-n8:16:32:64-S128"
target triple = "x86_64-pc-linux-gnu"

@hf_afp_message_type = internal global i32 0, align 4
@hf_afp_message_bitmap = internal global i32 0, align 4
@hf_afp_message_len = internal global i32 0, align 4
@hf_afp_message = internal global i32 0, align 4
@ett_afp_message_bitmap = internal global i32 0, align 4
@afp_message_bitmaps = internal constant [3 x ptr] [ptr @hf_afp_message_bitmap_REQ, ptr @hf_afp_message_bitmap_UTF, ptr null], align 16

; Function Attrs: null_pointer_is_valid sspstrong uwtable
define internal i32 @dissect_reply_afp_get_server_message(ptr noundef %0, ptr noundef %1, ptr noundef %2, i32 noundef %3) #1 {
  %5 = alloca ptr, align 8
  %6 = alloca ptr, align 8
  %7 = alloca ptr, align 8
  %8 = alloca i32, align 4
  %9 = alloca i16, align 2
  %10 = alloca i16, align 2
  store ptr %0, ptr %5, align 8
  store ptr %1, ptr %6, align 8
  store ptr %2, ptr %7, align 8
  store i32 %3, ptr %8, align 4
  call void @llvm.lifetime.start.p0(i64 2, ptr %9) #8
  call void @llvm.lifetime.start.p0(i64 2, ptr %10) #8
  store i16 0, ptr %10, align 2
  %11 = load ptr, ptr %7, align 8
  %12 = load i32, ptr @hf_afp_message_type, align 4
  %13 = load ptr, ptr %5, align 8
  %14 = load i32, ptr %8, align 4
  %15 = call ptr @proto_tree_add_item(ptr noundef %11, i32 noundef %12, ptr noundef %13, i32 noundef %14, i32 noundef 2, i32 noundef 0)
  %16 = load i32, ptr %8, align 4
  %17 = add i32 %16, 2
  store i32 %17, ptr %8, align 4
  %18 = load ptr, ptr %7, align 8
  %19 = load ptr, ptr %5, align 8
  %20 = load i32, ptr %8, align 4
  %21 = load i32, ptr @hf_afp_message_bitmap, align 4
  %22 = load i32, ptr @ett_afp_message_bitmap, align 4
  %23 = call ptr @proto_tree_add_bitmask(ptr noundef %18, ptr noundef %19, i32 noundef %20, i32 noundef %21, i32 noundef %22, ptr noundef @afp_message_bitmaps, i32 noundef 0)
  %24 = load ptr, ptr %5, align 8
  %25 = load i32, ptr %8, align 4
  %26 = call zeroext i16 @tvb_get_ntohs(ptr noundef %24, i32 noundef %25)
  store i16 %26, ptr %9, align 2
  %27 = load i32, ptr %8, align 4
  %28 = add i32 %27, 2
  store i32 %28, ptr %8, align 4
  %29 = load i16, ptr %9, align 2
  %30 = zext i16 %29 to i32
  %31 = and i32 %30, 2
  %32 = icmp ne i32 %31, 0
  br i1 %32, label %33, label %59

33:                                               ; preds = %4
  %34 = load ptr, ptr %5, align 8
  %35 = load i32, ptr %8, align 4
  %36 = call zeroext i16 @tvb_get_ntohs(ptr noundef %34, i32 noundef %35)
  store i16 %36, ptr %10, align 2
  %37 = load ptr, ptr %7, align 8
  %38 = load i32, ptr @hf_afp_message_len, align 4
  %39 = load ptr, ptr %5, align 8
  %40 = load i32, ptr %8, align 4
  %41 = call ptr @proto_tree_add_item(ptr noundef %37, i32 noundef %38, ptr noundef %39, i32 noundef %40, i32 noundef 2, i32 noundef 0)
  %42 = load i32, ptr %8, align 4
  %43 = add i32 %42, 2
  store i32 %43, ptr %8, align 4
  %44 = load i16, ptr %10, align 2
  %45 = icmp ne i16 %44, 0
  br i1 %45, label %46, label %58

46:                                               ; preds = %33
  %47 = load ptr, ptr %7, align 8
  %48 = load i32, ptr @hf_afp_message, align 4
  %49 = load ptr, ptr %5, align 8
  %50 = load i32, ptr %8, align 4
  %51 = load i16, ptr %10, align 2
  %52 = zext i16 %51 to i32
  %53 = call ptr @proto_tree_add_item(ptr noundef %47, i32 noundef %48, ptr noundef %49, i32 noundef %50, i32 noundef %52, i32 noundef 2)
  %54 = load i16, ptr %10, align 2
  %55 = zext i16 %54 to i32
  %56 = load i32, ptr %8, align 4
  %57 = add i32 %56, %55
  store i32 %57, ptr %8, align 4
  br label %58

58:                                               ; preds = %46, %33
  br label %86

59:                                               ; preds = %4
  %60 = load ptr, ptr %5, align 8
  %61 = load i32, ptr %8, align 4
  %62 = call zeroext i8 @tvb_get_uint8(ptr noundef %60, i32 noundef %61)
  %63 = zext i8 %62 to i16
  store i16 %63, ptr %10, align 2
  %64 = load ptr, ptr %7, align 8
  %65 = load i32, ptr @hf_afp_message_len, align 4
  %66 = load ptr, ptr %5, align 8
  %67 = load i32, ptr %8, align 4
  %68 = call ptr @proto_tree_add_item(ptr noundef %64, i32 noundef %65, ptr noundef %66, i32 noundef %67, i32 noundef 1, i32 noundef 0)
  %69 = load i32, ptr %8, align 4
  %70 = add i32 %69, 1
  store i32 %70, ptr %8, align 4
  %71 = load i16, ptr %10, align 2
  %72 = icmp ne i16 %71, 0
  br i1 %72, label %73, label %85

73:                                               ; preds = %59
  %74 = load ptr, ptr %7, align 8
  %75 = load i32, ptr @hf_afp_message, align 4
  %76 = load ptr, ptr %5, align 8
  %77 = load i32, ptr %8, align 4
  %78 = load i16, ptr %10, align 2
  %79 = zext i16 %78 to i32
  %80 = call ptr @proto_tree_add_item(ptr noundef %74, i32 noundef %75, ptr noundef %76, i32 noundef %77, i32 noundef %79, i32 noundef 0)
  %81 = load i16, ptr %10, align 2
  %82 = zext i16 %81 to i32
  %83 = load i32, ptr %8, align 4
  %84 = add i32 %83, %82
  store i32 %84, ptr %8, align 4
  br label %85

85:                                               ; preds = %73, %59
  br label %86

86:                                               ; preds = %85, %58
  %87 = load i32, ptr %8, align 4
  call void @llvm.lifetime.end.p0(i64 2, ptr %10) #8
  call void @llvm.lifetime.end.p0(i64 2, ptr %9) #8
  ret i32 %87
}