; Function Attrs: null_pointer_is_valid sspstrong uwtable
define internal fastcc range(i32 5, 65542) i32 @dissect_reply_afp_get_server_message(ptr noundef %0, ptr noundef %1) unnamed_addr #1 {
  %3 = load i32, ptr @hf_afp_message_type, align 4
  %4 = tail call ptr @proto_tree_add_item(ptr noundef %1, i32 noundef %3, ptr noundef %0, i32 noundef 0, i32 noundef 2, i32 noundef 0)
  %5 = load i32, ptr @hf_afp_message_bitmap, align 4
  %6 = load i32, ptr @ett_afp_message_bitmap, align 4
  %7 = tail call ptr @proto_tree_add_bitmask(ptr noundef %1, ptr noundef %0, i32 noundef 2, i32 noundef %5, i32 noundef %6, ptr noundef nonnull @afp_message_bitmaps, i32 noundef 0)
  %8 = tail call zeroext i16 @tvb_get_ntohs(ptr noundef %0, i32 noundef 2)
  %9 = and i16 %8, 2
  %.not = icmp eq i16 %9, 0
  br i1 %.not, label %19, label %10

10:                                               ; preds = %2
  %11 = tail call zeroext i16 @tvb_get_ntohs(ptr noundef %0, i32 noundef 4)
  %12 = load i32, ptr @hf_afp_message_len, align 4
  %13 = tail call ptr @proto_tree_add_item(ptr noundef %1, i32 noundef %12, ptr noundef %0, i32 noundef 4, i32 noundef 2, i32 noundef 0)
  %.not40 = icmp eq i16 %11, 0
  br i1 %.not40, label %28, label %14

14:                                               ; preds = %10
  %15 = load i32, ptr @hf_afp_message, align 4
  %16 = zext i16 %11 to i32
  %17 = tail call ptr @proto_tree_add_item(ptr noundef %1, i32 noundef %15, ptr noundef %0, i32 noundef 6, i32 noundef %16, i32 noundef 2)
  %18 = add nuw nsw i32 %16, 6
  br label %28

19:                                               ; preds = %2
  %20 = tail call zeroext i8 @tvb_get_uint8(ptr noundef %0, i32 noundef 4)
  %21 = load i32, ptr @hf_afp_message_len, align 4
  %22 = tail call ptr @proto_tree_add_item(ptr noundef %1, i32 noundef %21, ptr noundef %0, i32 noundef 4, i32 noundef 1, i32 noundef 0)
  %.not39 = icmp eq i8 %20, 0
  br i1 %.not39, label %28, label %23

23:                                               ; preds = %19
  %24 = load i32, ptr @hf_afp_message, align 4
  %25 = zext i8 %20 to i32
  %26 = tail call ptr @proto_tree_add_item(ptr noundef %1, i32 noundef %24, ptr noundef %0, i32 noundef 5, i32 noundef %25, i32 noundef 0)
  %27 = add nuw nsw i32 %25, 5
  br label %28

28:                                               ; preds = %19, %23, %10, %14
  %.0 = phi i32 [ %18, %14 ], [ 6, %10 ], [ %27, %23 ], [ 5, %19 ]
  ret i32 %.0
}